; ModuleID = '35/1613.c'
source_filename = "35/1613.c"
target datalayout = "e-m:e-p270:32:32-p271:32:32-p272:64:64-i64:64-f80:128-n8:16:32:64-S128"
target triple = "x86_64-pc-linux-gnu"

@.str = private unnamed_addr constant [6 x i8] c"%d,%d\00", align 1
@.str.1 = private unnamed_addr constant [3 x i8] c"%d\00", align 1
@a = common dso_local global [10 x [10 x i32]] zeroinitializer, align 16
@.str.2 = private unnamed_addr constant [6 x i8] c"%d+%d\00", align 1
@.str.3 = private unnamed_addr constant [3 x i8] c"No\00", align 1

; Function Attrs: noinline nounwind uwtable
define dso_local i32 @main() #0 {
  %1 = alloca i32, align 4
  %2 = alloca i32, align 4
  %3 = alloca i32, align 4
  %4 = alloca i32, align 4
  %5 = alloca i32, align 4
  %6 = alloca i32, align 4
  %7 = alloca i32, align 4
  %8 = alloca i32, align 4
  %9 = alloca i32, align 4
  %10 = alloca i32, align 4
  store i32 0, i32* %1, align 4
  %11 = call i32 (i8*, ...) @__isoc99_scanf(i8* getelementptr inbounds ([6 x i8], [6 x i8]* @.str, i64 0, i64 0), i32* %2, i32* %3)
  store i32 0, i32* %10, align 4
  store i32 0, i32* %4, align 4
  br label %12

12:                                               ; preds = %33, %0
  %13 = load i32, i32* %4, align 4
  %14 = load i32, i32* %2, align 4
  %15 = icmp slt i32 %13, %14
  br i1 %15, label %16, label %36

16:                                               ; preds = %12
  store i32 0, i32* %5, align 4
  br label %17

17:                                               ; preds = %29, %16
  %18 = load i32, i32* %5, align 4
  %19 = load i32, i32* %3, align 4
  %20 = icmp slt i32 %18, %19
  br i1 %20, label %21, label %32

21:                                               ; preds = %17
  %22 = load i32, i32* %4, align 4
  %23 = sext i32 %22 to i64
  %24 = getelementptr inbounds [10 x [10 x i32]], [10 x [10 x i32]]* @a, i64 0, i64 %23
  %25 = load i32, i32* %5, align 4
  %26 = sext i32 %25 to i64
  %27 = getelementptr inbounds [10 x i32], [10 x i32]* %24, i64 0, i64 %26
  %28 = call i32 (i8*, ...) @__isoc99_scanf(i8* getelementptr inbounds ([3 x i8], [3 x i8]* @.str.1, i64 0, i64 0), i32* %27)
  br label %29

29:                                               ; preds = %21
  %30 = load i32, i32* %5, align 4
  %31 = add nsw i32 %30, 1
  store i32 %31, i32* %5, align 4
  br label %17

32:                                               ; preds = %17
  br label %33

33:                                               ; preds = %32
  %34 = load i32, i32* %4, align 4
  %35 = add nsw i32 %34, 1
  store i32 %35, i32* %4, align 4
  br label %12

36:                                               ; preds = %12
  store i32 0, i32* %4, align 4
  br label %37

37:                                               ; preds = %116, %36
  %38 = load i32, i32* %4, align 4
  %39 = load i32, i32* %2, align 4
  %40 = icmp slt i32 %38, %39
  br i1 %40, label %41, label %119

41:                                               ; preds = %37
  %42 = load i32, i32* %4, align 4
  %43 = sext i32 %42 to i64
  %44 = getelementptr inbounds [10 x [10 x i32]], [10 x [10 x i32]]* @a, i64 0, i64 %43
  %45 = getelementptr inbounds [10 x i32], [10 x i32]* %44, i64 0, i64 0
  %46 = load i32, i32* %45, align 8
  store i32 %46, i32* %8, align 4
  store i32 0, i32* %7, align 4
  store i32 1, i32* %5, align 4
  br label %47

47:                                               ; preds = %71, %41
  %48 = load i32, i32* %5, align 4
  %49 = load i32, i32* %3, align 4
  %50 = icmp slt i32 %48, %49
  br i1 %50, label %51, label %74

51:                                               ; preds = %47
  %52 = load i32, i32* %4, align 4
  %53 = sext i32 %52 to i64
  %54 = getelementptr inbounds [10 x [10 x i32]], [10 x [10 x i32]]* @a, i64 0, i64 %53
  %55 = load i32, i32* %5, align 4
  %56 = sext i32 %55 to i64
  %57 = getelementptr inbounds [10 x i32], [10 x i32]* %54, i64 0, i64 %56
  %58 = load i32, i32* %57, align 4
  %59 = load i32, i32* %8, align 4
  %60 = icmp sgt i32 %58, %59
  br i1 %60, label %61, label %70

61:                                               ; preds = %51
  %62 = load i32, i32* %4, align 4
  %63 = sext i32 %62 to i64
  %64 = getelementptr inbounds [10 x [10 x i32]], [10 x [10 x i32]]* @a, i64 0, i64 %63
  %65 = load i32, i32* %5, align 4
  %66 = sext i32 %65 to i64
  %67 = getelementptr inbounds [10 x i32], [10 x i32]* %64, i64 0, i64 %66
  %68 = load i32, i32* %67, align 4
  store i32 %68, i32* %8, align 4
  %69 = load i32, i32* %5, align 4
  store i32 %69, i32* %7, align 4
  br label %70

70:                                               ; preds = %61, %51
  br label %71

71:                                               ; preds = %70
  %72 = load i32, i32* %5, align 4
  %73 = add nsw i32 %72, 1
  store i32 %73, i32* %5, align 4
  br label %47

74:                                               ; preds = %47
  %75 = load i32, i32* %7, align 4
  %76 = sext i32 %75 to i64
  %77 = getelementptr inbounds [10 x i32], [10 x i32]* getelementptr inbounds ([10 x [10 x i32]], [10 x [10 x i32]]* @a, i64 0, i64 0), i64 0, i64 %76
  %78 = load i32, i32* %77, align 4
  store i32 %78, i32* %9, align 4
  store i32 1, i32* %6, align 4
  br label %79

79:                                               ; preds = %102, %74
  %80 = load i32, i32* %6, align 4
  %81 = load i32, i32* %2, align 4
  %82 = icmp slt i32 %80, %81
  br i1 %82, label %83, label %105

83:                                               ; preds = %79
  %84 = load i32, i32* %6, align 4
  %85 = sext i32 %84 to i64
  %86 = getelementptr inbounds [10 x [10 x i32]], [10 x [10 x i32]]* @a, i64 0, i64 %85
  %87 = load i32, i32* %7, align 4
  %88 = sext i32 %87 to i64
  %89 = getelementptr inbounds [10 x i32], [10 x i32]* %86, i64 0, i64 %88
  %90 = load i32, i32* %89, align 4
  %91 = load i32, i32* %9, align 4
  %92 = icmp slt i32 %90, %91
  br i1 %92, label %93, label %101

93:                                               ; preds = %83
  %94 = load i32, i32* %6, align 4
  %95 = sext i32 %94 to i64
  %96 = getelementptr inbounds [10 x [10 x i32]], [10 x [10 x i32]]* @a, i64 0, i64 %95
  %97 = load i32, i32* %7, align 4
  %98 = sext i32 %97 to i64
  %99 = getelementptr inbounds [10 x i32], [10 x i32]* %96, i64 0, i64 %98
  %100 = load i32, i32* %99, align 4
  store i32 %100, i32* %9, align 4
  br label %101

101:                                              ; preds = %93, %83
  br label %102

102:                                              ; preds = %101
  %103 = load i32, i32* %6, align 4
  %104 = add nsw i32 %103, 1
  store i32 %104, i32* %6, align 4
  br label %79

105:                                              ; preds = %79
  %106 = load i32, i32* %8, align 4
  %107 = load i32, i32* %9, align 4
  %108 = icmp eq i32 %106, %107
  br i1 %108, label %109, label %115

109:                                              ; preds = %105
  %110 = load i32, i32* %4, align 4
  %111 = load i32, i32* %7, align 4
  %112 = call i32 (i8*, ...) @printf(i8* getelementptr inbounds ([6 x i8], [6 x i8]* @.str.2, i64 0, i64 0), i32 %110, i32 %111)
  %113 = load i32, i32* %10, align 4
  %114 = add nsw i32 %113, 1
  store i32 %114, i32* %10, align 4
  br label %115

115:                                              ; preds = %109, %105
  br label %116

116:                                              ; preds = %115
  %117 = load i32, i32* %4, align 4
  %118 = add nsw i32 %117, 1
  store i32 %118, i32* %4, align 4
  br label %37

119:                                              ; preds = %37
  %120 = load i32, i32* %10, align 4
  %121 = icmp eq i32 %120, 0
  br i1 %121, label %122, label %124

122:                                              ; preds = %119
  %123 = call i32 (i8*, ...) @printf(i8* getelementptr inbounds ([3 x i8], [3 x i8]* @.str.3, i64 0, i64 0))
  br label %124

124:                                              ; preds = %122, %119
  ret i32 0
}

declare dso_local i32 @__isoc99_scanf(i8*, ...) #1

declare dso_local i32 @printf(i8*, ...) #1


!llvm.module.flags = !{!0}
!llvm.ident = !{!1}

!0 = !{i32 1, !"wchar_size", i32 4}
!1 = !{!"clang version 10.0.0-4ubuntu1 "}
